target datalayout = "e-m:e-p270:32:32-p271:32:32-p272:64:64-i64:64-i128:128-f80:128-n8:16:32:64-S128"
target triple = "x86_64-pc-linux-gnu"

%struct.yy_buffer_state = type { ptr, ptr, ptr, i64, i64, i32, i32, i32, i32, i32, i32, i32 }

@.str.6 = private unnamed_addr constant [56 x i8] c"out of dynamic memory in textFileFormatYy_scan_buffer()\00", align 1

; Function Attrs: mustprogress nounwind uwtable
define noundef ptr @_Z21textFileFormatYyallocmPv(i64 noundef %0, ptr noundef %1) #1 {
  %3 = alloca i64, align 8
  %4 = alloca ptr, align 8
  store i64 %0, ptr %3, align 8
  store ptr %1, ptr %4, align 8
  %5 = load i64, ptr %3, align 8
  %6 = call noalias ptr @malloc(i64 noundef %5) #16
  ret ptr %6
}

; Function Attrs: mustprogress uwtable
define noundef ptr @_Z28textFileFormatYy_scan_bufferPcmPv(ptr noundef %0, i64 noundef %1, ptr noundef %2) #0 {
  %4 = alloca ptr, align 8
  %5 = alloca ptr, align 8
  %6 = alloca i64, align 8
  %7 = alloca ptr, align 8
  %8 = alloca ptr, align 8
  store ptr %0, ptr %5, align 8
  store i64 %1, ptr %6, align 8
  store ptr %2, ptr %7, align 8
  %9 = load i64, ptr %6, align 8
  %10 = icmp ult i64 %9, 2
  br i1 %10, label %27, label %11

11:                                               ; preds = %3
  %12 = load ptr, ptr %5, align 8
  %13 = load i64, ptr %6, align 8
  %14 = sub i64 %13, 2
  %15 = getelementptr inbounds i8, ptr %12, i64 %14
  %16 = load i8, ptr %15, align 1
  %17 = sext i8 %16 to i32
  %18 = icmp ne i32 %17, 0
  br i1 %18, label %27, label %19

19:                                               ; preds = %11
  %20 = load ptr, ptr %5, align 8
  %21 = load i64, ptr %6, align 8
  %22 = sub i64 %21, 1
  %23 = getelementptr inbounds i8, ptr %20, i64 %22
  %24 = load i8, ptr %23, align 1
  %25 = sext i8 %24 to i32
  %26 = icmp ne i32 %25, 0
  br i1 %26, label %27, label %28

27:                                               ; preds = %19, %11, %3
  store ptr null, ptr %4, align 8
  br label %65

28:                                               ; preds = %19
  %29 = load ptr, ptr %7, align 8
  %30 = call noundef ptr @_Z21textFileFormatYyallocmPv(i64 noundef 72, ptr noundef %29)
  store ptr %30, ptr %8, align 8
  %31 = load ptr, ptr %8, align 8
  %32 = icmp ne ptr %31, null
  br i1 %32, label %35, label %33

33:                                               ; preds = %28
  %34 = load ptr, ptr %7, align 8
  call void @_ZL14yy_fatal_errorPKcPv(ptr noundef @.str.6, ptr noundef %34)
  br label %35

35:                                               ; preds = %33, %28
  %36 = load i64, ptr %6, align 8
  %37 = sub i64 %36, 2
  %38 = load ptr, ptr %8, align 8
  %39 = getelementptr inbounds nuw %struct.yy_buffer_state, ptr %38, i32 0, i32 3
  store i64 %37, ptr %39, align 8
  %40 = load ptr, ptr %5, align 8
  %41 = load ptr, ptr %8, align 8
  %42 = getelementptr inbounds nuw %struct.yy_buffer_state, ptr %41, i32 0, i32 1
  store ptr %40, ptr %42, align 8
  %43 = load ptr, ptr %8, align 8
  %44 = getelementptr inbounds nuw %struct.yy_buffer_state, ptr %43, i32 0, i32 2
  store ptr %40, ptr %44, align 8
  %45 = load ptr, ptr %8, align 8
  %46 = getelementptr inbounds nuw %struct.yy_buffer_state, ptr %45, i32 0, i32 5
  store i32 0, ptr %46, align 8
  %47 = load ptr, ptr %8, align 8
  %48 = getelementptr inbounds nuw %struct.yy_buffer_state, ptr %47, i32 0, i32 0
  store ptr null, ptr %48, align 8
  %49 = load ptr, ptr %8, align 8
  %50 = getelementptr inbounds nuw %struct.yy_buffer_state, ptr %49, i32 0, i32 3
  %51 = load i64, ptr %50, align 8
  %52 = load ptr, ptr %8, align 8
  %53 = getelementptr inbounds nuw %struct.yy_buffer_state, ptr %52, i32 0, i32 4
  store i64 %51, ptr %53, align 8
  %54 = load ptr, ptr %8, align 8
  %55 = getelementptr inbounds nuw %struct.yy_buffer_state, ptr %54, i32 0, i32 6
  store i32 0, ptr %55, align 4
  %56 = load ptr, ptr %8, align 8
  %57 = getelementptr inbounds nuw %struct.yy_buffer_state, ptr %56, i32 0, i32 7
  store i32 1, ptr %57, align 8
  %58 = load ptr, ptr %8, align 8
  %59 = getelementptr inbounds nuw %struct.yy_buffer_state, ptr %58, i32 0, i32 10
  store i32 0, ptr %59, align 4
  %60 = load ptr, ptr %8, align 8
  %61 = getelementptr inbounds nuw %struct.yy_buffer_state, ptr %60, i32 0, i32 11
  store i32 0, ptr %61, align 8
  %62 = load ptr, ptr %8, align 8
  %63 = load ptr, ptr %7, align 8
  call void @_Z33textFileFormatYy_switch_to_bufferP15yy_buffer_statePv(ptr noundef %62, ptr noundef %63)
  %64 = load ptr, ptr %8, align 8
  store ptr %64, ptr %4, align 8
  br label %65

65:                                               ; preds = %35, %27
  %66 = load ptr, ptr %4, align 8
  ret ptr %66
}