; Function Attrs: mustprogress nounwind uwtable
define noundef ptr @_Z28textFileFormatYy_scan_bufferPcmPv(ptr noundef %0, i64 noundef %1, ptr noundef captures(none) %2) local_unnamed_addr #1 {
  %4 = icmp ult i64 %1, 2
  br i1 %4, label %26, label %5

5:                                                ; preds = %3
  %6 = add i64 %1, -2
  %7 = getelementptr inbounds i8, ptr %0, i64 %6
  %8 = load i8, ptr %7, align 1
  %.not = icmp eq i8 %8, 0
  br i1 %.not, label %9, label %26

9:                                                ; preds = %5
  %10 = getelementptr i8, ptr %0, i64 %1
  %11 = getelementptr i8, ptr %10, i64 -1
  %12 = load i8, ptr %11, align 1
  %.not25 = icmp eq i8 %12, 0
  br i1 %.not25, label %13, label %26

13:                                               ; preds = %9
  %14 = tail call noalias noundef dereferenceable_or_null(72) ptr @malloc(i64 noundef 72) #30
  %.not26 = icmp eq ptr %14, null
  br i1 %.not26, label %15, label %16

15:                                               ; preds = %13
  tail call fastcc void @_ZL14yy_fatal_errorPKcPv(ptr noundef nonnull @.str.6)
  unreachable

16:                                               ; preds = %13
  %17 = getelementptr inbounds nuw i8, ptr %14, i64 24
  store i64 %6, ptr %17, align 8
  %18 = getelementptr inbounds nuw i8, ptr %14, i64 8
  store ptr %0, ptr %18, align 8
  %19 = getelementptr inbounds nuw i8, ptr %14, i64 16
  store ptr %0, ptr %19, align 8
  %20 = getelementptr inbounds nuw i8, ptr %14, i64 40
  store i32 0, ptr %20, align 8
  store ptr null, ptr %14, align 8
  %21 = getelementptr inbounds nuw i8, ptr %14, i64 32
  store i64 %6, ptr %21, align 8
  %22 = getelementptr inbounds nuw i8, ptr %14, i64 44
  store i32 0, ptr %22, align 4
  %23 = getelementptr inbounds nuw i8, ptr %14, i64 48
  store i32 1, ptr %23, align 8
  %24 = getelementptr inbounds nuw i8, ptr %14, i64 60
  store i32 0, ptr %24, align 4
  %25 = getelementptr inbounds nuw i8, ptr %14, i64 64
  store i32 0, ptr %25, align 8
  tail call void @_Z33textFileFormatYy_switch_to_bufferP15yy_buffer_statePv(ptr noundef nonnull %14, ptr noundef %2)
  br label %26

26:                                               ; preds = %3, %5, %9, %16
  %.0 = phi ptr [ %14, %16 ], [ null, %9 ], [ null, %5 ], [ null, %3 ]
  ret ptr %.0
}